target datalayout = "e-m:e-p270:32:32-p271:32:32-p272:64:64-i64:64-i128:128-f80:128-n8:16:32:64-S128"
target triple = "x86_64-unknown-linux-gnu"

%struct.VmdkExtent = type { ptr, i8, i8, i8, i8, i8, i64, i64, i32, i32, i64, i64, i64, i64, i64, ptr, ptr, i32, i32, i32, ptr, [16 x i32], [16 x i32], i64, i64, ptr }
%struct.BdrvChild = type { ptr, ptr, ptr, i32, ptr, i64, i64, i8, i8, %struct.anon.11, %struct.anon.12 }
%struct.anon.11 = type { ptr, ptr }
%struct.anon.12 = type { ptr, ptr }
%struct.QEMUIOVector = type { ptr, i32, %union.anon.18 }
%union.anon.18 = type { %struct.anon.19 }
%struct.anon.19 = type { i32, %struct.iovec }
%struct.iovec = type { ptr, i64 }
%struct.VmdkGrainMarker = type <{ i64, i32, [0 x i8] }>

; Function Attrs: nounwind sspstrong uwtable
define internal i32 @le32_to_cpu(i32 noundef %v) #0 {
entry:
  %v.addr = alloca i32, align 4
  store i32 %v, ptr %v.addr, align 4
  %0 = load i32, ptr %v.addr, align 4
  ret i32 %0
}

; Function Attrs: nounwind sspstrong uwtable
define internal i32 @bdrv_co_pread(ptr noundef %child, i64 noundef %offset, i64 noundef %bytes, ptr noundef %buf, i32 noundef %flags) #0 {
entry:
  %child.addr = alloca ptr, align 8
  %offset.addr = alloca i64, align 8
  %bytes.addr = alloca i64, align 8
  %buf.addr = alloca ptr, align 8
  %flags.addr = alloca i32, align 4
  %qiov = alloca %struct.QEMUIOVector, align 8
  store ptr %child, ptr %child.addr, align 8
  store i64 %offset, ptr %offset.addr, align 8
  store i64 %bytes, ptr %bytes.addr, align 8
  store ptr %buf, ptr %buf.addr, align 8
  store i32 %flags, ptr %flags.addr, align 4
  %iov = getelementptr inbounds %struct.QEMUIOVector, ptr %qiov, i32 0, i32 0
  %0 = getelementptr inbounds %struct.QEMUIOVector, ptr %qiov, i32 0, i32 2
  %local_iov = getelementptr inbounds %struct.anon.19, ptr %0, i32 0, i32 1
  store ptr %local_iov, ptr %iov, align 8
  %niov = getelementptr inbounds %struct.QEMUIOVector, ptr %qiov, i32 0, i32 1
  store i32 1, ptr %niov, align 8
  %1 = getelementptr inbounds %struct.QEMUIOVector, ptr %qiov, i32 0, i32 2
  %nalloc = getelementptr inbounds %struct.anon.19, ptr %1, i32 0, i32 0
  store i32 -1, ptr %nalloc, align 8
  %local_iov1 = getelementptr inbounds %struct.anon.19, ptr %1, i32 0, i32 1
  %iov_base = getelementptr inbounds %struct.iovec, ptr %local_iov1, i32 0, i32 0
  %2 = load ptr, ptr %buf.addr, align 8
  store ptr %2, ptr %iov_base, align 8
  %iov_len = getelementptr inbounds %struct.iovec, ptr %local_iov1, i32 0, i32 1
  %3 = load i64, ptr %bytes.addr, align 8
  store i64 %3, ptr %iov_len, align 8
  br label %do.body

do.body:                                          ; preds = %entry
  br label %do.end

do.end:                                           ; preds = %do.body
  call void @assert_bdrv_graph_readable()
  %4 = load ptr, ptr %child.addr, align 8
  %5 = load i64, ptr %offset.addr, align 8
  %6 = load i64, ptr %bytes.addr, align 8
  %7 = load i32, ptr %flags.addr, align 4
  %call = call i32 @bdrv_co_preadv(ptr noundef %4, i64 noundef %5, i64 noundef %6, ptr noundef %qiov, i32 noundef %7)
  ret i32 %call
}

; Function Attrs: nounwind sspstrong uwtable
define internal i32 @vmdk_read_extent(ptr noundef %extent, i64 noundef %cluster_offset, i64 noundef %offset_in_cluster, ptr noundef %qiov, i32 noundef %bytes) #0 {
entry:
  %retval = alloca i32, align 4
  %extent.addr = alloca ptr, align 8
  %cluster_offset.addr = alloca i64, align 8
  %offset_in_cluster.addr = alloca i64, align 8
  %qiov.addr = alloca ptr, align 8
  %bytes.addr = alloca i32, align 4
  %ret = alloca i32, align 4
  %cluster_bytes = alloca i32, align 4
  %buf_bytes = alloca i32, align 4
  %cluster_buf = alloca ptr, align 8
  %compressed_data = alloca ptr, align 8
  %uncomp_buf = alloca ptr, align 8
  %data_len = alloca i32, align 4
  %marker = alloca ptr, align 8
  %buf_len = alloca i64, align 8
  store ptr %extent, ptr %extent.addr, align 8
  store i64 %cluster_offset, ptr %cluster_offset.addr, align 8
  store i64 %offset_in_cluster, ptr %offset_in_cluster.addr, align 8
  store ptr %qiov, ptr %qiov.addr, align 8
  store i32 %bytes, ptr %bytes.addr, align 4
  %0 = load ptr, ptr %extent.addr, align 8
  %compressed = getelementptr inbounds %struct.VmdkExtent, ptr %0, i32 0, i32 2
  %1 = load i8, ptr %compressed, align 1
  %tobool = trunc i8 %1 to i1
  br i1 %tobool, label %if.end8, label %if.then

if.then:                                          ; preds = %entry
  br label %do.body

do.body:                                          ; preds = %if.then
  %2 = load ptr, ptr %extent.addr, align 8
  %file = getelementptr inbounds %struct.VmdkExtent, ptr %2, i32 0, i32 0
  %3 = load ptr, ptr %file, align 8
  %tobool1 = icmp ne ptr %3, null
  br i1 %tobool1, label %if.then2, label %if.end

if.then2:                                         ; preds = %do.body
  %4 = load ptr, ptr %extent.addr, align 8
  %file3 = getelementptr inbounds %struct.VmdkExtent, ptr %4, i32 0, i32 0
  %5 = load ptr, ptr %file3, align 8
  %bs = getelementptr inbounds %struct.BdrvChild, ptr %5, i32 0, i32 0
  %6 = load ptr, ptr %bs, align 8
  call void @bdrv_co_debug_event(ptr noundef %6, i32 noundef 9)
  br label %if.end

if.end:                                           ; preds = %if.then2, %do.body
  br label %do.end

do.end:                                           ; preds = %if.end
  %7 = load ptr, ptr %extent.addr, align 8
  %file4 = getelementptr inbounds %struct.VmdkExtent, ptr %7, i32 0, i32 0
  %8 = load ptr, ptr %file4, align 8
  %9 = load i64, ptr %cluster_offset.addr, align 8
  %10 = load i64, ptr %offset_in_cluster.addr, align 8
  %add = add i64 %9, %10
  %11 = load i32, ptr %bytes.addr, align 4
  %conv = sext i32 %11 to i64
  %12 = load ptr, ptr %qiov.addr, align 8
  %call = call i32 @bdrv_co_preadv(ptr noundef %8, i64 noundef %add, i64 noundef %conv, ptr noundef %12, i32 noundef 0)
  store i32 %call, ptr %ret, align 4
  %13 = load i32, ptr %ret, align 4
  %cmp = icmp slt i32 %13, 0
  br i1 %cmp, label %if.then6, label %if.end7

if.then6:                                         ; preds = %do.end
  %14 = load i32, ptr %ret, align 4
  store i32 %14, ptr %retval, align 4
  br label %return

if.end7:                                          ; preds = %do.end
  store i32 0, ptr %retval, align 4
  br label %return

if.end8:                                          ; preds = %entry
  %15 = load ptr, ptr %extent.addr, align 8
  %cluster_sectors = getelementptr inbounds %struct.VmdkExtent, ptr %15, i32 0, i32 23
  %16 = load i64, ptr %cluster_sectors, align 8
  %mul = mul i64 %16, 512
  %conv9 = trunc i64 %mul to i32
  store i32 %conv9, ptr %cluster_bytes, align 4
  %17 = load i32, ptr %cluster_bytes, align 4
  %mul10 = mul i32 %17, 2
  store i32 %mul10, ptr %buf_bytes, align 4
  %18 = load i32, ptr %buf_bytes, align 4
  %conv11 = sext i32 %18 to i64
  %call12 = call noalias ptr @g_malloc(i64 noundef %conv11) #12
  store ptr %call12, ptr %cluster_buf, align 8
  %19 = load i32, ptr %cluster_bytes, align 4
  %conv13 = sext i32 %19 to i64
  %call14 = call noalias ptr @g_malloc(i64 noundef %conv13) #12
  store ptr %call14, ptr %uncomp_buf, align 8
  br label %do.body15

do.body15:                                        ; preds = %if.end8
  %20 = load ptr, ptr %extent.addr, align 8
  %file16 = getelementptr inbounds %struct.VmdkExtent, ptr %20, i32 0, i32 0
  %21 = load ptr, ptr %file16, align 8
  %tobool17 = icmp ne ptr %21, null
  br i1 %tobool17, label %if.then18, label %if.end21

if.then18:                                        ; preds = %do.body15
  %22 = load ptr, ptr %extent.addr, align 8
  %file19 = getelementptr inbounds %struct.VmdkExtent, ptr %22, i32 0, i32 0
  %23 = load ptr, ptr %file19, align 8
  %bs20 = getelementptr inbounds %struct.BdrvChild, ptr %23, i32 0, i32 0
  %24 = load ptr, ptr %bs20, align 8
  call void @bdrv_co_debug_event(ptr noundef %24, i32 noundef 11)
  br label %if.end21

if.end21:                                         ; preds = %if.then18, %do.body15
  br label %do.end22

do.end22:                                         ; preds = %if.end21
  %25 = load ptr, ptr %extent.addr, align 8
  %file23 = getelementptr inbounds %struct.VmdkExtent, ptr %25, i32 0, i32 0
  %26 = load ptr, ptr %file23, align 8
  %27 = load i64, ptr %cluster_offset.addr, align 8
  %28 = load i32, ptr %buf_bytes, align 4
  %conv24 = sext i32 %28 to i64
  %29 = load ptr, ptr %cluster_buf, align 8
  %call25 = call i32 @bdrv_co_pread(ptr noundef %26, i64 noundef %27, i64 noundef %conv24, ptr noundef %29, i32 noundef 0)
  store i32 %call25, ptr %ret, align 4
  %30 = load i32, ptr %ret, align 4
  %cmp26 = icmp slt i32 %30, 0
  br i1 %cmp26, label %if.then28, label %if.end29

if.then28:                                        ; preds = %do.end22
  br label %out

if.end29:                                         ; preds = %do.end22
  %31 = load ptr, ptr %cluster_buf, align 8
  store ptr %31, ptr %compressed_data, align 8
  %32 = load i32, ptr %cluster_bytes, align 4
  %conv30 = sext i32 %32 to i64
  store i64 %conv30, ptr %buf_len, align 8
  %33 = load i32, ptr %cluster_bytes, align 4
  store i32 %33, ptr %data_len, align 4
  %34 = load ptr, ptr %extent.addr, align 8
  %has_marker = getelementptr inbounds %struct.VmdkExtent, ptr %34, i32 0, i32 3
  %35 = load i8, ptr %has_marker, align 2
  %tobool31 = trunc i8 %35 to i1
  br i1 %tobool31, label %if.then32, label %if.end34

if.then32:                                        ; preds = %if.end29
  %36 = load ptr, ptr %cluster_buf, align 8
  store ptr %36, ptr %marker, align 8
  %37 = load ptr, ptr %marker, align 8
  %data = getelementptr inbounds %struct.VmdkGrainMarker, ptr %37, i32 0, i32 2
  %arraydecay = getelementptr inbounds [0 x i8], ptr %data, i64 0, i64 0
  store ptr %arraydecay, ptr %compressed_data, align 8
  %38 = load ptr, ptr %marker, align 8
  %size = getelementptr inbounds %struct.VmdkGrainMarker, ptr %38, i32 0, i32 1
  %39 = load i32, ptr %size, align 1
  %call33 = call i32 @le32_to_cpu(i32 noundef %39)
  store i32 %call33, ptr %data_len, align 4
  br label %if.end34

if.end34:                                         ; preds = %if.then32, %if.end29
  %40 = load i32, ptr %data_len, align 4
  %tobool35 = icmp ne i32 %40, 0
  br i1 %tobool35, label %lor.lhs.false, label %if.then38

lor.lhs.false:                                    ; preds = %if.end34
  %41 = load i32, ptr %data_len, align 4
  %42 = load i32, ptr %buf_bytes, align 4
  %cmp36 = icmp ugt i32 %41, %42
  br i1 %cmp36, label %if.then38, label %if.end39

if.then38:                                        ; preds = %lor.lhs.false, %if.end34
  store i32 -22, ptr %ret, align 4
  br label %out

if.end39:                                         ; preds = %lor.lhs.false
  %43 = load ptr, ptr %uncomp_buf, align 8
  %44 = load ptr, ptr %compressed_data, align 8
  %45 = load i32, ptr %data_len, align 4
  %conv40 = zext i32 %45 to i64
  %call41 = call i32 @uncompress(ptr noundef %43, ptr noundef %buf_len, ptr noundef %44, i64 noundef %conv40)
  store i32 %call41, ptr %ret, align 4
  %46 = load i32, ptr %ret, align 4
  %cmp42 = icmp ne i32 %46, 0
  br i1 %cmp42, label %if.then44, label %if.end45

if.then44:                                        ; preds = %if.end39
  store i32 -22, ptr %ret, align 4
  br label %out

if.end45:                                         ; preds = %if.end39
  %47 = load i64, ptr %offset_in_cluster.addr, align 8
  %cmp46 = icmp slt i64 %47, 0
  br i1 %cmp46, label %if.then53, label %lor.lhs.false48

lor.lhs.false48:                                  ; preds = %if.end45
  %48 = load i64, ptr %offset_in_cluster.addr, align 8
  %49 = load i32, ptr %bytes.addr, align 4
  %conv49 = sext i32 %49 to i64
  %add50 = add i64 %48, %conv49
  %50 = load i64, ptr %buf_len, align 8
  %cmp51 = icmp ugt i64 %add50, %50
  br i1 %cmp51, label %if.then53, label %if.end54

if.then53:                                        ; preds = %lor.lhs.false48, %if.end45
  store i32 -22, ptr %ret, align 4
  br label %out

if.end54:                                         ; preds = %lor.lhs.false48
  %51 = load ptr, ptr %qiov.addr, align 8
  %52 = load ptr, ptr %uncomp_buf, align 8
  %53 = load i64, ptr %offset_in_cluster.addr, align 8
  %add.ptr = getelementptr i8, ptr %52, i64 %53
  %54 = load i32, ptr %bytes.addr, align 4
  %conv55 = sext i32 %54 to i64
  %call56 = call i64 @qemu_iovec_from_buf(ptr noundef %51, i64 noundef 0, ptr noundef %add.ptr, i64 noundef %conv55)
  store i32 0, ptr %ret, align 4
  br label %out

out:                                              ; preds = %if.end54, %if.then53, %if.then44, %if.then38, %if.then28
  %55 = load ptr, ptr %uncomp_buf, align 8
  call void @g_free(ptr noundef %55)
  %56 = load ptr, ptr %cluster_buf, align 8
  call void @g_free(ptr noundef %56)
  %57 = load i32, ptr %ret, align 4
  store i32 %57, ptr %retval, align 4
  br label %return

return:                                           ; preds = %out, %if.end7, %if.then6
  %58 = load i32, ptr %retval, align 4
  ret i32 %58
}