; Function Attrs: nounwind sspstrong uwtable
define internal range(i32 -2147483648, 1) i32 @vmdk_read_extent(ptr noundef readonly captures(none) %extent, i64 noundef %cluster_offset, i64 noundef %offset_in_cluster, ptr noundef %qiov, i32 noundef %bytes) #0 {
entry:
  %qiov.i = alloca %struct.QEMUIOVector, align 8
  %buf_len = alloca i64, align 8
  %compressed = getelementptr inbounds nuw i8, ptr %extent, i64 9
  %0 = load i8, ptr %compressed, align 1
  %tobool = trunc i8 %0 to i1
  br i1 %tobool, label %if.end8, label %do.body

do.body:                                          ; preds = %entry
  %1 = load ptr, ptr %extent, align 8
  %tobool1.not = icmp eq ptr %1, null
  br i1 %tobool1.not, label %do.end, label %if.then2

if.then2:                                         ; preds = %do.body
  %2 = load ptr, ptr %1, align 8
  tail call void @bdrv_co_debug_event(ptr noundef %2, i32 noundef 9) #15
  %.pre = load ptr, ptr %extent, align 8
  br label %do.end

do.end:                                           ; preds = %do.body, %if.then2
  %3 = phi ptr [ null, %do.body ], [ %.pre, %if.then2 ]
  %add = add i64 %offset_in_cluster, %cluster_offset
  %conv = sext i32 %bytes to i64
  %call = tail call i32 @bdrv_co_preadv(ptr noundef %3, i64 noundef %add, i64 noundef %conv, ptr noundef %qiov, i32 noundef 0) #15
  %call. = tail call i32 @llvm.smin.i32(i32 %call, i32 0)
  br label %return

if.end8:                                          ; preds = %entry
  %cluster_sectors = getelementptr inbounds nuw i8, ptr %extent, i64 248
  %4 = load i64, ptr %cluster_sectors, align 8
  %.tr = trunc i64 %4 to i32
  %conv9 = shl i32 %.tr, 9
  %mul10 = shl i32 %.tr, 10
  %conv11 = sext i32 %mul10 to i64
  %call12 = tail call noalias ptr @g_malloc(i64 noundef %conv11) #18
  %conv13 = sext i32 %conv9 to i64
  %call14 = tail call noalias ptr @g_malloc(i64 noundef %conv13) #18
  %5 = load ptr, ptr %extent, align 8
  %tobool17.not = icmp eq ptr %5, null
  br i1 %tobool17.not, label %do.end22, label %if.then18

if.then18:                                        ; preds = %if.end8
  %6 = load ptr, ptr %5, align 8
  tail call void @bdrv_co_debug_event(ptr noundef %6, i32 noundef 11) #15
  %.pre35 = load ptr, ptr %extent, align 8
  br label %do.end22

do.end22:                                         ; preds = %if.end8, %if.then18
  %7 = phi ptr [ null, %if.end8 ], [ %.pre35, %if.then18 ]
  call void @llvm.lifetime.start.p0(i64 40, ptr nonnull %qiov.i)
  %8 = getelementptr inbounds nuw i8, ptr %qiov.i, i64 16
  %local_iov.i = getelementptr inbounds nuw i8, ptr %qiov.i, i64 24
  store ptr %local_iov.i, ptr %qiov.i, align 8
  %niov.i = getelementptr inbounds nuw i8, ptr %qiov.i, i64 8
  store i32 1, ptr %niov.i, align 8
  store i32 -1, ptr %8, align 8
  store ptr %call12, ptr %local_iov.i, align 8
  %iov_len.i = getelementptr inbounds nuw i8, ptr %qiov.i, i64 32
  store i64 %conv11, ptr %iov_len.i, align 8
  call void @assert_bdrv_graph_readable() #15
  %call.i = call i32 @bdrv_co_preadv(ptr noundef %7, i64 noundef %cluster_offset, i64 noundef %conv11, ptr noundef nonnull %qiov.i, i32 noundef 0) #15
  call void @llvm.lifetime.end.p0(i64 40, ptr nonnull %qiov.i)
  %cmp26 = icmp slt i32 %call.i, 0
  br i1 %cmp26, label %out, label %if.end29

if.end29:                                         ; preds = %do.end22
  store i64 %conv13, ptr %buf_len, align 8
  %has_marker = getelementptr inbounds nuw i8, ptr %extent, i64 10
  %9 = load i8, ptr %has_marker, align 2
  %tobool31 = trunc i8 %9 to i1
  br i1 %tobool31, label %if.then32, label %if.end34

if.then32:                                        ; preds = %if.end29
  %data = getelementptr inbounds nuw i8, ptr %call12, i64 12
  %size = getelementptr inbounds nuw i8, ptr %call12, i64 8
  %10 = load i32, ptr %size, align 1
  br label %if.end34

if.end34:                                         ; preds = %if.then32, %if.end29
  %compressed_data.0 = phi ptr [ %data, %if.then32 ], [ %call12, %if.end29 ]
  %data_len.0 = phi i32 [ %10, %if.then32 ], [ %conv9, %if.end29 ]
  %11 = add i32 %data_len.0, -1
  %or.cond.not = icmp ult i32 %11, %mul10
  br i1 %or.cond.not, label %if.end39, label %out

if.end39:                                         ; preds = %if.end34
  %conv40 = zext i32 %data_len.0 to i64
  %call41 = call i32 @uncompress(ptr noundef %call14, ptr noundef nonnull %buf_len, ptr noundef %compressed_data.0, i64 noundef %conv40) #15
  %cmp42.not = icmp ne i32 %call41, 0
  %cmp46 = icmp slt i64 %offset_in_cluster, 0
  %or.cond34 = or i1 %cmp46, %cmp42.not
  br i1 %or.cond34, label %out, label %lor.lhs.false48

lor.lhs.false48:                                  ; preds = %if.end39
  %conv49 = sext i32 %bytes to i64
  %add50 = add i64 %offset_in_cluster, %conv49
  %12 = load i64, ptr %buf_len, align 8
  %cmp51 = icmp ugt i64 %add50, %12
  br i1 %cmp51, label %out, label %if.end54

if.end54:                                         ; preds = %lor.lhs.false48
  %add.ptr = getelementptr i8, ptr %call14, i64 %offset_in_cluster
  %call56 = call i64 @qemu_iovec_from_buf(ptr noundef %qiov, i64 noundef 0, ptr noundef %add.ptr, i64 noundef %conv49) #15
  br label %out

out:                                              ; preds = %lor.lhs.false48, %if.end39, %if.end34, %do.end22, %if.end54
  %ret.0 = phi i32 [ %call.i, %do.end22 ], [ 0, %if.end54 ], [ -22, %if.end34 ], [ -22, %if.end39 ], [ -22, %lor.lhs.false48 ]
  call void @g_free(ptr noundef %call14) #15
  call void @g_free(ptr noundef %call12) #15
  br label %return

return:                                           ; preds = %do.end, %out
  %retval.0 = phi i32 [ %ret.0, %out ], [ %call., %do.end ]
  ret i32 %retval.0
}